target datalayout = "e-m:e-p270:32:32-p271:32:32-p272:64:64-i64:64-i128:128-f80:128-n8:16:32:64-S128"
target triple = "x86_64-pc-linux-gnu"

; Function Attrs: nounwind uwtable
define internal void @dc_128_32x32_c(ptr noundef %0, i64 noundef %1, ptr noundef %2, ptr noundef %3) #2 {
  %5 = alloca ptr, align 8
  %6 = alloca i64, align 8
  %7 = alloca ptr, align 8
  %8 = alloca ptr, align 8
  %9 = alloca ptr, align 8
  %10 = alloca i64, align 8
  %11 = alloca i32, align 4
  store ptr %0, ptr %5, align 8, !tbaa !10
  store i64 %1, ptr %6, align 8, !tbaa !12
  store ptr %2, ptr %7, align 8, !tbaa !10
  store ptr %3, ptr %8, align 8, !tbaa !10
  call void @llvm.lifetime.start.p0(i64 8, ptr %9) #9
  %12 = load ptr, ptr %5, align 8, !tbaa !10
  store ptr %12, ptr %9, align 8, !tbaa !14
  call void @llvm.lifetime.start.p0(i64 8, ptr %10) #9
  store i64 576469548530665472, ptr %10, align 8, !tbaa !12
  call void @llvm.lifetime.start.p0(i64 4, ptr %11) #9
  %13 = load i64, ptr %6, align 8, !tbaa !12
  %14 = udiv i64 %13, 2
  store i64 %14, ptr %6, align 8, !tbaa !12
  store i32 0, ptr %11, align 4, !tbaa !18
  br label %15

15:                                               ; preds = %46, %4
  %16 = load i32, ptr %11, align 4, !tbaa !18
  %17 = icmp slt i32 %16, 32
  br i1 %17, label %18, label %49

18:                                               ; preds = %15
  %19 = load i64, ptr %10, align 8, !tbaa !12
  %20 = load ptr, ptr %9, align 8, !tbaa !14
  %21 = getelementptr inbounds i16, ptr %20, i64 0
  store i64 %19, ptr %21, align 8, !tbaa !22
  %22 = load i64, ptr %10, align 8, !tbaa !12
  %23 = load ptr, ptr %9, align 8, !tbaa !14
  %24 = getelementptr inbounds i16, ptr %23, i64 4
  store i64 %22, ptr %24, align 8, !tbaa !22
  %25 = load i64, ptr %10, align 8, !tbaa !12
  %26 = load ptr, ptr %9, align 8, !tbaa !14
  %27 = getelementptr inbounds i16, ptr %26, i64 8
  store i64 %25, ptr %27, align 8, !tbaa !22
  %28 = load i64, ptr %10, align 8, !tbaa !12
  %29 = load ptr, ptr %9, align 8, !tbaa !14
  %30 = getelementptr inbounds i16, ptr %29, i64 12
  store i64 %28, ptr %30, align 8, !tbaa !22
  %31 = load i64, ptr %10, align 8, !tbaa !12
  %32 = load ptr, ptr %9, align 8, !tbaa !14
  %33 = getelementptr inbounds i16, ptr %32, i64 16
  store i64 %31, ptr %33, align 8, !tbaa !22
  %34 = load i64, ptr %10, align 8, !tbaa !12
  %35 = load ptr, ptr %9, align 8, !tbaa !14
  %36 = getelementptr inbounds i16, ptr %35, i64 20
  store i64 %34, ptr %36, align 8, !tbaa !22
  %37 = load i64, ptr %10, align 8, !tbaa !12
  %38 = load ptr, ptr %9, align 8, !tbaa !14
  %39 = getelementptr inbounds i16, ptr %38, i64 24
  store i64 %37, ptr %39, align 8, !tbaa !22
  %40 = load i64, ptr %10, align 8, !tbaa !12
  %41 = load ptr, ptr %9, align 8, !tbaa !14
  %42 = getelementptr inbounds i16, ptr %41, i64 28
  store i64 %40, ptr %42, align 8, !tbaa !22
  %43 = load i64, ptr %6, align 8, !tbaa !12
  %44 = load ptr, ptr %9, align 8, !tbaa !14
  %45 = getelementptr inbounds i16, ptr %44, i64 %43
  store ptr %45, ptr %9, align 8, !tbaa !14
  br label %46

46:                                               ; preds = %18
  %47 = load i32, ptr %11, align 4, !tbaa !18
  %48 = add nsw i32 %47, 1
  store i32 %48, ptr %11, align 4, !tbaa !18
  br label %15, !llvm.loop !32

49:                                               ; preds = %15
  call void @llvm.lifetime.end.p0(i64 4, ptr %11) #9
  call void @llvm.lifetime.end.p0(i64 8, ptr %10) #9
  call void @llvm.lifetime.end.p0(i64 8, ptr %9) #9
  ret void
}